; Function Attrs: mustprogress nofree norecurse nosync nounwind memory(argmem: readwrite) uwtable
define noundef nonnull align 8 dereferenceable(32) ptr @_ZN5arrow15BasicDecimal2563AbsEv(ptr noundef nonnull returned align 8 captures(ret: address, provenance) dereferenceable(32) %0) local_unnamed_addr #8 align 2 personality ptr @__gxx_personality_v0 {
  %2 = getelementptr inbounds nuw i8, ptr %0, i64 24
  %3 = load i64, ptr %2, align 8, !tbaa !7
  %4 = icmp slt i64 %3, 0
  br i1 %4, label %.preheader, label %_ZN5arrow15BasicDecimal2566NegateEv.exit

.preheader:                                       ; preds = %1, %.preheader
  %.010.i = phi i64 [ %11, %.preheader ], [ 1, %1 ]
  %.089.i = phi i64 [ %12, %.preheader ], [ 0, %1 ]
  %5 = getelementptr inbounds nuw [4 x i64], ptr %0, i64 0, i64 %.089.i
  %6 = load i64, ptr %5, align 8, !tbaa !7
  %7 = xor i64 %6, -1
  %8 = add i64 %.010.i, %7
  store i64 %8, ptr %5, align 8, !tbaa !7
  %9 = icmp eq i64 %8, 0
  %10 = and i64 %.010.i, 1
  %11 = select i1 %9, i64 %10, i64 0
  %12 = add nuw nsw i64 %.089.i, 1
  %exitcond.not.i = icmp eq i64 %12, 4
  br i1 %exitcond.not.i, label %_ZN5arrow15BasicDecimal2566NegateEv.exit, label %.preheader, !llvm.loop !29

_ZN5arrow15BasicDecimal2566NegateEv.exit:         ; preds = %.preheader, %1
  ret ptr %0
}